; Function Attrs: mustprogress nounwind uwtable
define dso_local void @_ZN4llvm4yaml12ScalarTraitsINS_12VersionTupleEvE6outputERKS2_PvRNS_11raw_ostreamE(ptr noundef nonnull align 4 dereferenceable(16) %0, ptr noundef readnone captures(none) %1, ptr noundef nonnull align 8 dereferenceable(48) %2) local_unnamed_addr #6 align 2 {
  %4 = alloca %"class.std::__cxx11::basic_string", align 8
  call void @_ZNK4llvm12VersionTuple11getAsStringB5cxx11Ev(ptr dead_on_unwind nonnull writable sret(%"class.std::__cxx11::basic_string") align 8 %4, ptr noundef nonnull align 4 dereferenceable(16) %0) #32
  %5 = call noundef ptr @_ZNKSt7__cxx1112basic_stringIcSt11char_traitsIcESaIcEE4dataEv(ptr noundef nonnull align 8 dereferenceable(32) %4) #32
  %6 = call noundef i64 @_ZNKSt7__cxx1112basic_stringIcSt11char_traitsIcESaIcEE6lengthEv(ptr noundef nonnull align 8 dereferenceable(32) %4) #32
  %7 = call noundef nonnull align 8 dereferenceable(48) ptr @_ZN4llvm11raw_ostream5writeEPKcm(ptr noundef nonnull align 8 dereferenceable(48) %2, ptr noundef %5, i64 noundef %6) #32
  call void @_ZNSt7__cxx1112basic_stringIcSt11char_traitsIcESaIcEED1Ev(ptr noundef nonnull align 8 dereferenceable(32) %4) #32
  ret void
}